; Function Attrs: nounwind uwtable
define noalias ptr @l_Array_foldlMUnsafe_fold___at_Lean_Compiler_LCNF_JoinPointContextExtender_withNewCandidates___spec__1(ptr noundef readonly captures(none) %0, i64 noundef %1, i64 noundef %2, ptr noundef %3, ptr readnone captures(none) %4, ptr readnone captures(none) %5, ptr noundef %6, ptr noundef %7, ptr noundef %8, ptr noundef %9, ptr noundef %10, ptr noundef %11) local_unnamed_addr #1 {
  %.not59 = icmp eq i64 %1, %2
  br i1 %.not59, label %._crit_edge, label %.lr.ph

.lr.ph:                                           ; preds = %12
  %13 = getelementptr inbounds nuw i8, ptr %0, i64 24
  br label %14

14:                                               ; preds = %.lr.ph, %54
  %.03162 = phi i64 [ %1, %.lr.ph ], [ %56, %54 ]
  %.03361 = phi ptr [ %3, %.lr.ph ], [ %55, %54 ]
  %.03560 = phi ptr [ %11, %.lr.ph ], [ %33, %54 ]
  %15 = getelementptr inbounds nuw [0 x ptr], ptr %13, i64 0, i64 %.03162
  %16 = load ptr, ptr %15, align 8, !tbaa !4
  %17 = ptrtoint ptr %16 to i64
  %18 = and i64 %17, 1
  %.not.i38 = icmp eq i64 %18, 0
  br i1 %.not.i38, label %19, label %lean_inc.exit37

19:                                               ; preds = %14
  %.val.i.i = load i32, ptr %16, align 4, !tbaa !8
  %20 = icmp sgt i32 %.val.i.i, 0
  br i1 %20, label %21, label %23, !prof !11

21:                                               ; preds = %19
  %22 = add nuw i32 %.val.i.i, 1
  store i32 %22, ptr %16, align 4, !tbaa !8
  br label %25

23:                                               ; preds = %19
  %.not.i.i = icmp eq i32 %.val.i.i, 0
  br i1 %.not.i.i, label %lean_inc.exit37, label %24

24:                                               ; preds = %23
  tail call void @lean_inc_ref_cold(ptr noundef nonnull %16) #5
  %.val.i.pr = load i32, ptr %16, align 4, !tbaa !8
  br label %25

25:                                               ; preds = %21, %24
  %.val.i = phi i32 [ %22, %21 ], [ %.val.i.pr, %24 ]
  %26 = icmp sgt i32 %.val.i, 0
  br i1 %26, label %27, label %29, !prof !17

27:                                               ; preds = %25
  %28 = add nuw i32 %.val.i, 1
  store i32 %28, ptr %16, align 4, !tbaa !8
  br label %lean_inc.exit37

29:                                               ; preds = %25
  %.not.i39 = icmp eq i32 %.val.i, 0
  br i1 %.not.i39, label %lean_inc.exit37, label %30

30:                                               ; preds = %29
  tail call void @lean_inc_ref_cold(ptr noundef nonnull %16) #5
  br label %lean_inc.exit37

lean_inc.exit37:                                  ; preds = %23, %30, %29, %27, %14
  %31 = tail call ptr @l_Lean_Compiler_LCNF_ScopeM_addToScope(ptr noundef %16, ptr noundef %6, ptr noundef %7, ptr noundef %8, ptr noundef %9, ptr noundef %10, ptr noundef %.03560) #5
  %32 = getelementptr inbounds nuw i8, ptr %31, i64 16
  %33 = load ptr, ptr %32, align 8, !tbaa !4
  %34 = ptrtoint ptr %33 to i64
  %35 = and i64 %34, 1
  %.not57 = icmp eq i64 %35, 0
  br i1 %.not57, label %36, label %lean_inc.exit

36:                                               ; preds = %lean_inc.exit37
  %.val.i40 = load i32, ptr %33, align 4, !tbaa !8
  %37 = icmp sgt i32 %.val.i40, 0
  br i1 %37, label %38, label %40, !prof !11

38:                                               ; preds = %36
  %39 = add nuw i32 %.val.i40, 1
  store i32 %39, ptr %33, align 4, !tbaa !8
  br label %lean_inc.exit

40:                                               ; preds = %36
  %.not.i41 = icmp eq i32 %.val.i40, 0
  br i1 %.not.i41, label %lean_inc.exit, label %41

41:                                               ; preds = %40
  tail call void @lean_inc_ref_cold(ptr noundef nonnull %33) #5
  br label %lean_inc.exit

lean_inc.exit:                                    ; preds = %41, %40, %38, %lean_inc.exit37
  %42 = ptrtoint ptr %31 to i64
  %43 = and i64 %42, 1
  %.not58 = icmp eq i64 %43, 0
  br i1 %.not58, label %44, label %54

44:                                               ; preds = %lean_inc.exit
  %45 = load i32, ptr %31, align 4, !tbaa !8
  %46 = icmp sgt i32 %45, 1
  br i1 %46, label %47, label %49, !prof !11

47:                                               ; preds = %44
  %48 = add nsw i32 %45, -1
  store i32 %48, ptr %31, align 4, !tbaa !8
  br label %54

49:                                               ; preds = %44
  %.not.i = icmp eq i32 %45, 0
  br i1 %.not.i, label %54, label %50

50:                                               ; preds = %49
  tail call void @lean_dec_ref_cold(ptr noundef nonnull %31) #5
  br label %54

._crit_edge:                                      ; preds = %54, %12
  %.035.lcssa = phi ptr [ %11, %12 ], [ %33, %54 ]
  %.033.lcssa = phi ptr [ %3, %12 ], [ %55, %54 ]
  tail call void @lean_inc_heartbeat() #5
  %51 = tail call noalias ptr @mi_malloc_small(i64 noundef 24) #5
  %52 = icmp eq ptr %51, null
  br i1 %52, label %53, label %57

53:                                               ; preds = %._crit_edge
  tail call void @lean_internal_panic_out_of_memory() #6
  unreachable

54:                                               ; preds = %lean_inc.exit, %47, %49, %50
  %55 = tail call ptr @l_Lean_RBNode_insert___at_Lean_FVarIdSet_insert___spec__1(ptr noundef %.03361, ptr noundef %16, ptr noundef nonnull inttoptr (i64 1 to ptr)) #5
  %56 = add i64 %.03162, 1
  %.not = icmp eq i64 %56, %2
  br i1 %.not, label %._crit_edge, label %14

57:                                               ; preds = %._crit_edge
  %58 = getelementptr inbounds nuw i8, ptr %51, i64 4
  store i32 1, ptr %51, align 4, !tbaa !8
  store i32 131096, ptr %58, align 4
  %59 = getelementptr inbounds nuw i8, ptr %51, i64 8
  store ptr %.033.lcssa, ptr %59, align 8, !tbaa !4
  %60 = getelementptr inbounds nuw i8, ptr %51, i64 16
  store ptr %.035.lcssa, ptr %60, align 8, !tbaa !4
  ret ptr %51
}